Certificate:
    Data:
        Version: 3 (0x2)
        Serial Number: 525 (0x20d)
    Signature Algorithm: sha256WithRSAEncryption
        Issuer: C=IN, ST=KA, L=Bangalore, O=Ionos, OU=ovpn, CN=Ionos CA/name=Ionos-CA/emailAddress=krish@ionosnetworks.com
        Validity
            Not Before: May 17 06:31:19 2016 GMT
            Not After : May 17 06:31:19 2019 GMT
        Subject: C=IN, ST=KA, L=Bangalore, O=Ionos, OU=prod, CN=CloudVault-CloudVault/name=Ionos-CA/emailAddress=krish@ionosnetworks.com
        Subject Public Key Info:
            Public Key Algorithm: rsaEncryption
                Public-Key: (2048 bit)
                Modulus:
                    00:9a:cf:60:51:c5:95:d9:8f:6b:92:f6:a3:18:ec:
                    9d:83:42:70:cf:a7:6f:8e:3e:0f:60:bb:ec:e8:d4:
                    9f:6c:92:f0:95:6c:5f:17:a4:98:e9:1b:f6:db:5a:
                    48:ed:2c:5a:25:00:0c:ec:70:2b:d2:e9:35:4b:8d:
                    c0:33:b9:ad:32:bc:a9:48:b8:f3:ea:84:ba:dc:1d:
                    f5:66:13:6e:8a:cf:8a:04:6b:55:22:14:a8:02:90:
                    0e:4b:99:90:66:e4:fa:da:f6:a6:8a:6a:10:10:96:
                    e3:9c:b0:6b:1d:25:28:77:e7:92:e3:f3:7f:d8:68:
                    91:5a:95:6d:f5:37:2a:41:d0:08:65:b2:d1:dd:61:
                    e8:97:67:e2:64:51:9d:a7:85:0a:92:08:21:7a:e3:
                    39:14:f9:b6:04:3f:e6:d8:33:55:04:b3:8c:f9:5b:
                    02:79:73:2d:90:18:95:c3:72:a3:b3:da:bc:5e:75:
                    b7:98:a8:79:2c:59:cb:a2:b2:3f:56:f2:3d:98:c5:
                    23:29:52:c2:65:6b:03:de:59:7e:61:bf:af:95:6d:
                    3f:2f:d5:d9:ab:c6:12:a7:a4:16:97:e0:b8:28:b1:
                    4d:e6:4a:6c:d1:aa:5e:97:aa:7d:62:7d:17:e4:16:
                    70:60:18:5f:d2:43:d6:d3:14:e7:e7:31:ef:62:81:
                    b5:e1
                Exponent: 65537 (0x10001)
        X509v3 extensions:
            X509v3 Basic Constraints: 
                CA:FALSE
            Netscape Cert Type: 
                SSL Server
            Netscape Comment: 
                Easy-RSA Generated Server Certificate
            X509v3 Subject Key Identifier: 
                E5:7F:2E:21:48:C7:3A:C1:24:93:A7:5B:66:95:B3:73:01:BB:A6:EB
            X509v3 Authority Key Identifier: 
                keyid:AD:BB:23:93:3E:6C:13:24:72:3D:64:DA:7F:C2:60:77:9A:DA:66:A3
                DirName:/C=IN/ST=KA/L=Bangalore/O=Ionos/OU=ovpn/CN=Ionos CA/name=Ionos-CA/emailAddress=krish@ionosnetworks.com
                serial:A8:68:ED:25:3C:20:C8:42

            X509v3 Extended Key Usage: 
                TLS Web Server Authentication
            X509v3 Key Usage: 
                Digital Signature, Key Encipherment
            X509v3 Subject Alternative Name: 
                DNS:CloudVault-CloudVault
    Signature Algorithm: sha256WithRSAEncryption
         0d:77:6a:77:83:05:7e:50:6c:67:b4:de:2d:95:5a:2c:30:93:
         52:3e:84:62:41:4b:10:2e:4b:ea:56:d0:c1:7c:45:ad:98:7b:
         02:d6:6d:05:ae:97:4b:fc:16:95:32:3b:ef:bb:d7:22:61:0f:
         88:15:85:4d:6b:37:3e:01:52:ab:29:fe:ae:c0:0a:0e:5c:22:
         72:58:e3:fb:dd:78:f5:fc:8a:e8:f7:61:3d:bd:f3:7f:f5:3b:
         27:23:5c:9b:8b:fc:af:f3:a6:07:3c:39:f6:da:eb:54:4b:82:
         53:46:2a:45:a3:c6:35:94:aa:98:41:3a:b5:04:88:84:0e:64:
         2c:7f:77:cd:50:9d:2f:02:fe:ad:c6:14:8c:0a:3b:0a:9f:52:
         ad:a0:c8:b7:d0:e5:42:97:d5:21:fa:92:d2:16:6c:e6:d5:3f:
         91:ae:8c:1c:83:1c:5f:b7:18:d6:65:bc:02:9e:4c:bf:bf:d1:
         ac:57:4f:4d:a2:31:97:e4:10:78:7b:fe:68:5b:da:7a:06:23:
         bf:03:a3:1c:3f:36:41:e6:d0:4f:46:36:47:1d:72:0f:a6:14:
         00:2e:c5:50:4e:08:7d:b1:fb:8f:a1:ea:6d:3c:45:5c:99:7e:
         b5:f7:c0:87:6b:39:c8:92:a6:04:a0:92:9a:a7:7a:8c:2f:99:
         d1:75:e1:1c
-----BEGIN CERTIFICATE-----
MIIFUTCCBDmgAwIBAgICAg0wDQYJKoZIhvcNAQELBQAwgZsxCzAJBgNVBAYTAklO
MQswCQYDVQQIEwJLQTESMBAGA1UEBxMJQmFuZ2Fsb3JlMQ4wDAYDVQQKEwVJb25v
czENMAsGA1UECxMEb3ZwbjERMA8GA1UEAxMISW9ub3MgQ0ExETAPBgNVBCkTCElv
bm9zLUNBMSYwJAYJKoZIhvcNAQkBFhdrcmlzaEBpb25vc25ldHdvcmtzLmNvbTAe
Fw0xNjA1MTcwNjMxMTlaFw0xOTA1MTcwNjMxMTlaMIGoMQswCQYDVQQGEwJJTjEL
MAkGA1UECBMCS0ExEjAQBgNVBAcTCUJhbmdhbG9yZTEOMAwGA1UEChMFSW9ub3Mx
DTALBgNVBAsTBHByb2QxHjAcBgNVBAMTFUNsb3VkVmF1bHQtQ2xvdWRWYXVsdDER
MA8GA1UEKRMISW9ub3MtQ0ExJjAkBgkqhkiG9w0BCQEWF2tyaXNoQGlvbm9zbmV0
d29ya3MuY29tMIIBIjANBgkqhkiG9w0BAQEFAAOCAQ8AMIIBCgKCAQEAms9gUcWV
2Y9rkvajGOydg0Jwz6dvjj4PYLvs6NSfbJLwlWxfF6SY6Rv221pI7SxaJQAM7HAr
0uk1S43AM7mtMrypSLjz6oS63B31ZhNuis+KBGtVIhSoApAOS5mQZuT62vamimoQ
EJbjnLBrHSUod+eS4/N/2GiRWpVt9TcqQdAIZbLR3WHol2fiZFGdp4UKkggheuM5
FPm2BD/m2DNVBLOM+VsCeXMtkBiVw3Kjs9q8XnW3mKh5LFnLorI/VvI9mMUjKVLC
ZWsD3ll+Yb+vlW0/L9XZq8YSp6QWl+C4KLFN5kps0apel6p9Yn0X5BZwYBhf0kPW
0xTn5zHvYoG14QIDAQABo4IBjjCCAYowCQYDVR0TBAIwADARBglghkgBhvhCAQEE
BAMCBkAwNAYJYIZIAYb4QgENBCcWJUVhc3ktUlNBIEdlbmVyYXRlZCBTZXJ2ZXIg
Q2VydGlmaWNhdGUwHQYDVR0OBBYEFOV/LiFIxzrBJJOnW2aVs3MBu6brMIHQBgNV
HSMEgcgwgcWAFK27I5M+bBMkcj1k2n/CYHea2majoYGhpIGeMIGbMQswCQYDVQQG
EwJJTjELMAkGA1UECBMCS0ExEjAQBgNVBAcTCUJhbmdhbG9yZTEOMAwGA1UEChMF
SW9ub3MxDTALBgNVBAsTBG92cG4xETAPBgNVBAMTCElvbm9zIENBMREwDwYDVQQp
EwhJb25vcy1DQTEmMCQGCSqGSIb3DQEJARYXa3Jpc2hAaW9ub3NuZXR3b3Jrcy5j
b22CCQCoaO0lPCDIQjATBgNVHSUEDDAKBggrBgEFBQcDATALBgNVHQ8EBAMCBaAw
IAYDVR0RBBkwF4IVQ2xvdWRWYXVsdC1DbG91ZFZhdWx0MA0GCSqGSIb3DQEBCwUA
A4IBAQANd2p3gwV+UGxntN4tlVosMJNSPoRiQUsQLkvqVtDBfEWtmHsC1m0FrpdL
/BaVMjvvu9ciYQ+IFYVNazc+AVKrKf6uwAoOXCJyWOP73Xj1/Iro92E9vfN/9Tsn
I1ybi/yv86YHPDn22utUS4JTRipFo8Y1lKqYQTq1BIiEDmQsf3fNUJ0vAv6txhSM
CjsKn1KtoMi30OVCl9Uh+pLSFmzm1T+RrowcgxxftxjWZbwCnky/v9GsV09NojGX
5BB4e/5oW9p6BiO/A6McPzZB5tBPRjZHHXIPphQALsVQTgh9sfuPoeptPEVcmX61
98CHaznIkqYEoJKap3qML5nRdeEc
-----END CERTIFICATE-----
